; Function Attrs: mustprogress nounwind uwtable
define internal void @_ZN10open_spiel12_GLOBAL__N_124FixedActionPreferenceBotD2Ev(ptr nocapture noundef nonnull align 8 dereferenceable(40) %0) unnamed_addr #4 align 2 personality ptr @__gxx_personality_v0 {
  store ptr getelementptr inbounds inrange(-16, 120) (i8, ptr @_ZTVN10open_spiel12_GLOBAL__N_124FixedActionPreferenceBotE, i64 16), ptr %0, align 8
  %2 = getelementptr inbounds nuw i8, ptr %0, i64 16
  %3 = load ptr, ptr %2, align 8
  %.not.i.i.i = icmp eq ptr %3, null
  br i1 %.not.i.i.i, label %_ZNSt6vectorIlSaIlEED2Ev.exit, label %4

4:                                                ; preds = %1
  %5 = getelementptr inbounds i8, ptr %0, i64 32
  %6 = load ptr, ptr %5, align 8
  %7 = ptrtoint ptr %6 to i64
  %8 = ptrtoint ptr %3 to i64
  %9 = sub i64 %7, %8
  tail call void @_ZdlPvm(ptr noundef nonnull %3, i64 noundef %9) #24
  br label %_ZNSt6vectorIlSaIlEED2Ev.exit

_ZNSt6vectorIlSaIlEED2Ev.exit:                    ; preds = %1, %4
  ret void
}